; ModuleID = '2/55.c'
source_filename = "2/55.c"
target datalayout = "e-m:e-p270:32:32-p271:32:32-p272:64:64-i64:64-f80:128-n8:16:32:64-S128"
target triple = "x86_64-pc-linux-gnu"

@.str = private unnamed_addr constant [3 x i8] c"%d\00", align 1
@.str.1 = private unnamed_addr constant [6 x i8] c"%d %s\00", align 1
@.str.2 = private unnamed_addr constant [7 x i8] c"%c\0A%d\0A\00", align 1
@.str.3 = private unnamed_addr constant [4 x i8] c"%d\0A\00", align 1

; Function Attrs: noinline nounwind uwtable
define dso_local void @main() #0 {
  %1 = alloca i32, align 4
  %2 = alloca i32, align 4
  %3 = alloca [100 x i32], align 16
  %4 = alloca [26 x i32], align 16
  %5 = alloca i32, align 4
  %6 = alloca i32, align 4
  %7 = alloca i32, align 4
  %8 = alloca [100 x [26 x i8]], align 16
  %9 = bitcast [26 x i32]* %4 to i8*
  call void @llvm.memset.p0i8.i64(i8* align 16 %9, i8 0, i64 104, i1 false)
  store i32 0, i32* %5, align 4
  %10 = call i32 (i8*, ...) @__isoc99_scanf(i8* getelementptr inbounds ([3 x i8], [3 x i8]* @.str, i64 0, i64 0), i32* %1)
  store i32 0, i32* %2, align 4
  br label %11

11:                                               ; preds = %51, %0
  %12 = load i32, i32* %2, align 4
  %13 = load i32, i32* %1, align 4
  %14 = icmp slt i32 %12, %13
  br i1 %14, label %15, label %54

15:                                               ; preds = %11
  %16 = load i32, i32* %2, align 4
  %17 = sext i32 %16 to i64
  %18 = getelementptr inbounds [100 x i32], [100 x i32]* %3, i64 0, i64 %17
  %19 = load i32, i32* %2, align 4
  %20 = sext i32 %19 to i64
  %21 = getelementptr inbounds [100 x [26 x i8]], [100 x [26 x i8]]* %8, i64 0, i64 %20
  %22 = getelementptr inbounds [26 x i8], [26 x i8]* %21, i64 0, i64 0
  %23 = call i32 (i8*, ...) @__isoc99_scanf(i8* getelementptr inbounds ([6 x i8], [6 x i8]* @.str.1, i64 0, i64 0), i32* %18, i8* %22)
  store i32 0, i32* %7, align 4
  br label %24

24:                                               ; preds = %47, %15
  %25 = load i32, i32* %7, align 4
  %26 = sext i32 %25 to i64
  %27 = load i32, i32* %2, align 4
  %28 = sext i32 %27 to i64
  %29 = getelementptr inbounds [100 x [26 x i8]], [100 x [26 x i8]]* %8, i64 0, i64 %28
  %30 = getelementptr inbounds [26 x i8], [26 x i8]* %29, i64 0, i64 0
  %31 = call i64 @strlen(i8* %30) #4
  %32 = icmp ult i64 %26, %31
  br i1 %32, label %33, label %50

33:                                               ; preds = %24
  %34 = load i32, i32* %2, align 4
  %35 = sext i32 %34 to i64
  %36 = getelementptr inbounds [100 x [26 x i8]], [100 x [26 x i8]]* %8, i64 0, i64 %35
  %37 = load i32, i32* %7, align 4
  %38 = sext i32 %37 to i64
  %39 = getelementptr inbounds [26 x i8], [26 x i8]* %36, i64 0, i64 %38
  %40 = load i8, i8* %39, align 1
  %41 = sext i8 %40 to i32
  %42 = sub nsw i32 %41, 65
  %43 = sext i32 %42 to i64
  %44 = getelementptr inbounds [26 x i32], [26 x i32]* %4, i64 0, i64 %43
  %45 = load i32, i32* %44, align 4
  %46 = add nsw i32 %45, 1
  store i32 %46, i32* %44, align 4
  br label %47

47:                                               ; preds = %33
  %48 = load i32, i32* %7, align 4
  %49 = add nsw i32 %48, 1
  store i32 %49, i32* %7, align 4
  br label %24

50:                                               ; preds = %24
  br label %51

51:                                               ; preds = %50
  %52 = load i32, i32* %2, align 4
  %53 = add nsw i32 %52, 1
  store i32 %53, i32* %2, align 4
  br label %11

54:                                               ; preds = %11
  store i32 0, i32* %2, align 4
  br label %55

55:                                               ; preds = %71, %54
  %56 = load i32, i32* %2, align 4
  %57 = icmp slt i32 %56, 26
  br i1 %57, label %58, label %74

58:                                               ; preds = %55
  %59 = load i32, i32* %2, align 4
  %60 = sext i32 %59 to i64
  %61 = getelementptr inbounds [26 x i32], [26 x i32]* %4, i64 0, i64 %60
  %62 = load i32, i32* %61, align 4
  %63 = load i32, i32* %5, align 4
  %64 = icmp sgt i32 %62, %63
  br i1 %64, label %65, label %70

65:                                               ; preds = %58
  %66 = load i32, i32* %2, align 4
  %67 = sext i32 %66 to i64
  %68 = getelementptr inbounds [26 x i32], [26 x i32]* %4, i64 0, i64 %67
  %69 = load i32, i32* %68, align 4
  store i32 %69, i32* %5, align 4
  br label %70

70:                                               ; preds = %65, %58
  br label %71

71:                                               ; preds = %70
  %72 = load i32, i32* %2, align 4
  %73 = add nsw i32 %72, 1
  store i32 %73, i32* %2, align 4
  br label %55

74:                                               ; preds = %55
  store i32 0, i32* %2, align 4
  br label %75

75:                                               ; preds = %94, %74
  %76 = load i32, i32* %2, align 4
  %77 = icmp slt i32 %76, 26
  br i1 %77, label %78, label %97

78:                                               ; preds = %75
  %79 = load i32, i32* %2, align 4
  %80 = sext i32 %79 to i64
  %81 = getelementptr inbounds [26 x i32], [26 x i32]* %4, i64 0, i64 %80
  %82 = load i32, i32* %81, align 4
  %83 = load i32, i32* %5, align 4
  %84 = icmp eq i32 %82, %83
  br i1 %84, label %85, label %93

85:                                               ; preds = %78
  %86 = load i32, i32* %2, align 4
  %87 = add nsw i32 %86, 65
  %88 = load i32, i32* %2, align 4
  %89 = sext i32 %88 to i64
  %90 = getelementptr inbounds [26 x i32], [26 x i32]* %4, i64 0, i64 %89
  %91 = load i32, i32* %90, align 4
  %92 = call i32 (i8*, ...) @printf(i8* getelementptr inbounds ([7 x i8], [7 x i8]* @.str.2, i64 0, i64 0), i32 %87, i32 %91)
  br label %97

93:                                               ; preds = %78
  br label %94

94:                                               ; preds = %93
  %95 = load i32, i32* %2, align 4
  %96 = add nsw i32 %95, 1
  store i32 %96, i32* %2, align 4
  br label %75

97:                                               ; preds = %85, %75
  store i32 0, i32* %6, align 4
  br label %98

98:                                               ; preds = %135, %97
  %99 = load i32, i32* %6, align 4
  %100 = load i32, i32* %1, align 4
  %101 = icmp slt i32 %99, %100
  br i1 %101, label %102, label %138

102:                                              ; preds = %98
  store i32 0, i32* %7, align 4
  br label %103

103:                                              ; preds = %131, %102
  %104 = load i32, i32* %7, align 4
  %105 = sext i32 %104 to i64
  %106 = load i32, i32* %6, align 4
  %107 = sext i32 %106 to i64
  %108 = getelementptr inbounds [100 x [26 x i8]], [100 x [26 x i8]]* %8, i64 0, i64 %107
  %109 = getelementptr inbounds [26 x i8], [26 x i8]* %108, i64 0, i64 0
  %110 = call i64 @strlen(i8* %109) #4
  %111 = icmp ult i64 %105, %110
  br i1 %111, label %112, label %134

112:                                              ; preds = %103
  %113 = load i32, i32* %6, align 4
  %114 = sext i32 %113 to i64
  %115 = getelementptr inbounds [100 x [26 x i8]], [100 x [26 x i8]]* %8, i64 0, i64 %114
  %116 = load i32, i32* %7, align 4
  %117 = sext i32 %116 to i64
  %118 = getelementptr inbounds [26 x i8], [26 x i8]* %115, i64 0, i64 %117
  %119 = load i8, i8* %118, align 1
  %120 = sext i8 %119 to i32
  %121 = load i32, i32* %2, align 4
  %122 = add nsw i32 %121, 65
  %123 = icmp eq i32 %120, %122
  br i1 %123, label %124, label %130

124:                                              ; preds = %112
  %125 = load i32, i32* %6, align 4
  %126 = sext i32 %125 to i64
  %127 = getelementptr inbounds [100 x i32], [100 x i32]* %3, i64 0, i64 %126
  %128 = load i32, i32* %127, align 4
  %129 = call i32 (i8*, ...) @printf(i8* getelementptr inbounds ([4 x i8], [4 x i8]* @.str.3, i64 0, i64 0), i32 %128)
  br label %130

130:                                              ; preds = %124, %112
  br label %131

131:                                              ; preds = %130
  %132 = load i32, i32* %7, align 4
  %133 = add nsw i32 %132, 1
  store i32 %133, i32* %7, align 4
  br label %103

134:                                              ; preds = %103
  br label %135

135:                                              ; preds = %134
  %136 = load i32, i32* %6, align 4
  %137 = add nsw i32 %136, 1
  store i32 %137, i32* %6, align 4
  br label %98

138:                                              ; preds = %98
  ret void
}

; Function Attrs: argmemonly nounwind willreturn
declare void @llvm.memset.p0i8.i64(i8* nocapture writeonly, i8, i64, i1 immarg) #1

declare dso_local i32 @__isoc99_scanf(i8*, ...) #2

; Function Attrs: nounwind readonly
declare dso_local i64 @strlen(i8*) #3

declare dso_local i32 @printf(i8*, ...) #2


!llvm.module.flags = !{!0}
!llvm.ident = !{!1}

!0 = !{i32 1, !"wchar_size", i32 4}
!1 = !{!"clang version 10.0.0-4ubuntu1 "}
